target datalayout = "e-m:e-p270:32:32-p271:32:32-p272:64:64-i64:64-i128:128-f80:128-n8:16:32:64-S128"
target triple = "x86_64-pc-linux-gnu"

%struct._PyUnicode_TypeRecord = type { i32, i32, i32, i8, i8, i16 }

; Function Attrs: nounwind uwtable
define internal ptr @gettyperecord(i32 noundef %0) #0 {
  %2 = alloca i32, align 4
  %3 = alloca i32, align 4
  store i32 %0, ptr %2, align 4, !tbaa !4
  call void @llvm.lifetime.start.p0(i64 4, ptr %3) #2
  %4 = load i32, ptr %2, align 4, !tbaa !4
  %5 = icmp uge i32 %4, 1114112
  br i1 %5, label %6, label %7

6:                                                ; preds = %1
  store i32 0, ptr %3, align 4, !tbaa !4
  br label %23

7:                                                ; preds = %1
  %8 = load i32, ptr %2, align 4, !tbaa !4
  %9 = lshr i32 %8, 6
  %10 = zext i32 %9 to i64
  %11 = getelementptr [17408 x i16], ptr @index1, i64 0, i64 %10
  %12 = load i16, ptr %11, align 2, !tbaa !14
  %13 = zext i16 %12 to i32
  store i32 %13, ptr %3, align 4, !tbaa !4
  %14 = load i32, ptr %3, align 4, !tbaa !4
  %15 = shl i32 %14, 6
  %16 = load i32, ptr %2, align 4, !tbaa !4
  %17 = and i32 %16, 63
  %18 = add i32 %15, %17
  %19 = zext i32 %18 to i64
  %20 = getelementptr [29312 x i16], ptr @index2, i64 0, i64 %19
  %21 = load i16, ptr %20, align 2, !tbaa !14
  %22 = zext i16 %21 to i32
  store i32 %22, ptr %3, align 4, !tbaa !4
  br label %23

23:                                               ; preds = %7, %6
  %24 = load i32, ptr %3, align 4, !tbaa !4
  %25 = sext i32 %24 to i64
  %26 = getelementptr [509 x %struct._PyUnicode_TypeRecord], ptr @_PyUnicode_TypeRecords, i64 0, i64 %25
  call void @llvm.lifetime.end.p0(i64 4, ptr %3) #2
  ret ptr %26
}

; Function Attrs: nounwind uwtable
define hidden i32 @_PyUnicode_ToTitleFull(i32 noundef %0, ptr noundef %1) #0 {
  %3 = alloca i32, align 4
  %4 = alloca i32, align 4
  %5 = alloca ptr, align 8
  %6 = alloca ptr, align 8
  %7 = alloca i32, align 4
  %8 = alloca i32, align 4
  %9 = alloca i32, align 4
  %10 = alloca i32, align 4
  store i32 %0, ptr %4, align 4, !tbaa !4
  store ptr %1, ptr %5, align 8, !tbaa !19
  call void @llvm.lifetime.start.p0(i64 8, ptr %6) #2
  %11 = load i32, ptr %4, align 4, !tbaa !4
  %12 = call ptr @gettyperecord(i32 noundef %11)
  store ptr %12, ptr %6, align 8, !tbaa !8
  %13 = load ptr, ptr %6, align 8, !tbaa !8
  %14 = getelementptr inbounds nuw %struct._PyUnicode_TypeRecord, ptr %13, i32 0, i32 5
  %15 = load i16, ptr %14, align 2, !tbaa !10
  %16 = zext i16 %15 to i32
  %17 = and i32 %16, 16384
  %18 = icmp ne i32 %17, 0
  br i1 %18, label %19, label %48

19:                                               ; preds = %2
  call void @llvm.lifetime.start.p0(i64 4, ptr %7) #2
  %20 = load ptr, ptr %6, align 8, !tbaa !8
  %21 = getelementptr inbounds nuw %struct._PyUnicode_TypeRecord, ptr %20, i32 0, i32 2
  %22 = load i32, ptr %21, align 4, !tbaa !13
  %23 = and i32 %22, 65535
  store i32 %23, ptr %7, align 4, !tbaa !4
  call void @llvm.lifetime.start.p0(i64 4, ptr %8) #2
  %24 = load ptr, ptr %6, align 8, !tbaa !8
  %25 = getelementptr inbounds nuw %struct._PyUnicode_TypeRecord, ptr %24, i32 0, i32 2
  %26 = load i32, ptr %25, align 4, !tbaa !13
  %27 = ashr i32 %26, 24
  store i32 %27, ptr %8, align 4, !tbaa !4
  call void @llvm.lifetime.start.p0(i64 4, ptr %9) #2
  store i32 0, ptr %9, align 4, !tbaa !4
  br label %28

28:                                               ; preds = %43, %19
  %29 = load i32, ptr %9, align 4, !tbaa !4
  %30 = load i32, ptr %8, align 4, !tbaa !4
  %31 = icmp slt i32 %29, %30
  br i1 %31, label %32, label %46

32:                                               ; preds = %28
  %33 = load i32, ptr %7, align 4, !tbaa !4
  %34 = load i32, ptr %9, align 4, !tbaa !4
  %35 = add i32 %33, %34
  %36 = sext i32 %35 to i64
  %37 = getelementptr [1236 x i32], ptr @_PyUnicode_ExtendedCase, i64 0, i64 %36
  %38 = load i32, ptr %37, align 4, !tbaa !4
  %39 = load ptr, ptr %5, align 8, !tbaa !19
  %40 = load i32, ptr %9, align 4, !tbaa !4
  %41 = sext i32 %40 to i64
  %42 = getelementptr i32, ptr %39, i64 %41
  store i32 %38, ptr %42, align 4, !tbaa !4
  br label %43

43:                                               ; preds = %32
  %44 = load i32, ptr %9, align 4, !tbaa !4
  %45 = add i32 %44, 1
  store i32 %45, ptr %9, align 4, !tbaa !4
  br label %28, !llvm.loop !23

46:                                               ; preds = %28
  %47 = load i32, ptr %8, align 4, !tbaa !4
  store i32 %47, ptr %3, align 4
  store i32 1, ptr %10, align 4
  call void @llvm.lifetime.end.p0(i64 4, ptr %9) #2
  call void @llvm.lifetime.end.p0(i64 4, ptr %8) #2
  call void @llvm.lifetime.end.p0(i64 4, ptr %7) #2
  br label %56

48:                                               ; preds = %2
  %49 = load i32, ptr %4, align 4, !tbaa !4
  %50 = load ptr, ptr %6, align 8, !tbaa !8
  %51 = getelementptr inbounds nuw %struct._PyUnicode_TypeRecord, ptr %50, i32 0, i32 2
  %52 = load i32, ptr %51, align 4, !tbaa !13
  %53 = add i32 %49, %52
  %54 = load ptr, ptr %5, align 8, !tbaa !19
  %55 = getelementptr i32, ptr %54, i64 0
  store i32 %53, ptr %55, align 4, !tbaa !4
  store i32 1, ptr %3, align 4
  store i32 1, ptr %10, align 4
  br label %56

56:                                               ; preds = %48, %46
  call void @llvm.lifetime.end.p0(i64 8, ptr %6) #2
  %57 = load i32, ptr %3, align 4
  ret i32 %57
}